ccopy_reg
_reconstructor
p0
(csklearn.linear_model.base
LinearRegression
p1
c__builtin__
object
p2
Ntp3
Rp4
(dp5
S'normalize'
p6
I00
sS'n_jobs'
p7
I4
sS'rank_'
p8
I4
sS'fit_intercept'
p9
I01
sS'_residues'
p10
cnumpy.core.multiarray
scalar
p11
(cnumpy
dtype
p12
(S'f8'
p13
I0
I1
tp14
Rp15
(I3
S'<'
p16
NNNI-1
I-1
I0
tp17
bS'`\xac\xad\xc2\xe9*\xca@'
p18
tp19
Rp20
sS'singular_'
p21
cnumpy.core.multiarray
_reconstruct
p22
(cnumpy
ndarray
p23
(I0
tp24
S'b'
p25
tp26
Rp27
(I1
(I4
tp28
g15
I00
S'\xa1\x89F\x99\xc0\x9eN@b\xf67\x10\x84\xc7G@\x84\xa1I3\xcf\x03A@\x0fm\xf0\x12\x07\xc71@'
p29
tp30
bsS'coef_'
p31
g22
(g23
(I0
tp32
g25
tp33
Rp34
(I1
(I4
tp35
g15
I00
S'\xe7\xf3\x10\xee\xc2\xd7;@\x19\xf2Z\xa9JHd\xbf\x8d\xafpT\xaf\xba\xbc\xbf\xa1\xe1\x1a\x1a\xb6+\x92?'
p36
tp37
bsS'_sklearn_version'
p38
S'0.18.1'
p39
sS'copy_X'
p40
I01
sS'intercept_'
p41
g11
(g15
S'\xa1QH\xf0MtF@'
p42
tp43
Rp44
sb.